target datalayout = "e-m:e-p270:32:32-p271:32:32-p272:64:64-i64:64-i128:128-f80:128-n8:16:32:64-S128"
target triple = "x86_64-pc-linux-gnu"

%struct.SDL_EVDEV_keyboard_state = type { i32, i8, i32, ptr, [9 x i8], i8, i32, ptr, i32, i8, i8, i8, i8, i8, [128 x i8], i32, ptr, ptr, ptr, ptr }

; Function Attrs: nounwind uwtable
define hidden void @SDL_EVDEV_kbd_set_vt_switch_callbacks(ptr noundef %0, ptr noundef %1, ptr noundef %2, ptr noundef %3, ptr noundef %4) #0 {
  %6 = alloca ptr, align 8
  %7 = alloca ptr, align 8
  %8 = alloca ptr, align 8
  %9 = alloca ptr, align 8
  %10 = alloca ptr, align 8
  store ptr %0, ptr %6, align 8
  store ptr %1, ptr %7, align 8
  store ptr %2, ptr %8, align 8
  store ptr %3, ptr %9, align 8
  store ptr %4, ptr %10, align 8
  %11 = load ptr, ptr %6, align 8
  %12 = icmp eq ptr %11, null
  br i1 %12, label %13, label %14

13:                                               ; preds = %5
  br label %27

14:                                               ; preds = %5
  %15 = load ptr, ptr %7, align 8
  %16 = load ptr, ptr %6, align 8
  %17 = getelementptr inbounds nuw %struct.SDL_EVDEV_keyboard_state, ptr %16, i32 0, i32 16
  store ptr %15, ptr %17, align 8
  %18 = load ptr, ptr %8, align 8
  %19 = load ptr, ptr %6, align 8
  %20 = getelementptr inbounds nuw %struct.SDL_EVDEV_keyboard_state, ptr %19, i32 0, i32 17
  store ptr %18, ptr %20, align 8
  %21 = load ptr, ptr %9, align 8
  %22 = load ptr, ptr %6, align 8
  %23 = getelementptr inbounds nuw %struct.SDL_EVDEV_keyboard_state, ptr %22, i32 0, i32 18
  store ptr %21, ptr %23, align 8
  %24 = load ptr, ptr %10, align 8
  %25 = load ptr, ptr %6, align 8
  %26 = getelementptr inbounds nuw %struct.SDL_EVDEV_keyboard_state, ptr %25, i32 0, i32 19
  store ptr %24, ptr %26, align 8
  br label %27

27:                                               ; preds = %14, %13
  ret void
}