; Function Attrs: mustprogress nofree norecurse nosync nounwind willreturn memory(argmem: write) uwtable
define hidden void @SDL_EVDEV_kbd_set_vt_switch_callbacks(ptr noundef writeonly captures(address_is_null) %0, ptr noundef %1, ptr noundef %2, ptr noundef %3, ptr noundef %4) local_unnamed_addr #7 {
  %6 = icmp eq ptr %0, null
  br i1 %6, label %12, label %7

7:                                                ; preds = %5
  %8 = getelementptr inbounds nuw i8, ptr %0, i64 192
  store ptr %1, ptr %8, align 8
  %9 = getelementptr inbounds nuw i8, ptr %0, i64 200
  store ptr %2, ptr %9, align 8
  %10 = getelementptr inbounds nuw i8, ptr %0, i64 208
  store ptr %3, ptr %10, align 8
  %11 = getelementptr inbounds nuw i8, ptr %0, i64 216
  store ptr %4, ptr %11, align 8
  br label %12

12:                                               ; preds = %5, %7
  ret void
}